target datalayout = "e-m:e-p270:32:32-p271:32:32-p272:64:64-i64:64-i128:128-f80:128-n8:16:32:64-S128"
target triple = "x86_64-pc-linux-gnu"

%struct.quic_sstream_st = type { %struct.ring_buf, %struct.ossl_list_st_uint_set, %struct.ossl_list_st_uint_set, i8 }
%struct.ring_buf = type { ptr, i64, i64, i64 }
%struct.ossl_list_st_uint_set = type { ptr, ptr, i64 }

; Function Attrs: nounwind uwtable
define i32 @ossl_quic_sstream_get_final_size(ptr noundef %0, ptr noundef %1) #0 {
  %3 = alloca i32, align 4
  %4 = alloca ptr, align 8
  %5 = alloca ptr, align 8
  store ptr %0, ptr %4, align 8, !tbaa !7
  store ptr %1, ptr %5, align 8, !tbaa !25
  %6 = load ptr, ptr %4, align 8, !tbaa !7
  %7 = getelementptr inbounds nuw %struct.quic_sstream_st, ptr %6, i32 0, i32 3
  %8 = load i8, ptr %7, align 8
  %9 = and i8 %8, 1
  %10 = zext i8 %9 to i32
  %11 = icmp ne i32 %10, 0
  br i1 %11, label %13, label %12

12:                                               ; preds = %2
  store i32 0, ptr %3, align 4
  br label %23

13:                                               ; preds = %2
  %14 = load ptr, ptr %5, align 8, !tbaa !25
  %15 = icmp ne ptr %14, null
  br i1 %15, label %16, label %22

16:                                               ; preds = %13
  %17 = load ptr, ptr %4, align 8, !tbaa !7
  %18 = getelementptr inbounds nuw %struct.quic_sstream_st, ptr %17, i32 0, i32 0
  %19 = getelementptr inbounds nuw %struct.ring_buf, ptr %18, i32 0, i32 2
  %20 = load i64, ptr %19, align 8, !tbaa !31
  %21 = load ptr, ptr %5, align 8, !tbaa !25
  store i64 %20, ptr %21, align 8, !tbaa !3
  br label %22

22:                                               ; preds = %16, %13
  store i32 1, ptr %3, align 4
  br label %23

23:                                               ; preds = %22, %12
  %24 = load i32, ptr %3, align 4
  ret i32 %24
}