; Function Attrs: mustprogress nofree norecurse nosync nounwind willreturn memory(argmem: readwrite) uwtable
define range(i32 0, 2) i32 @ossl_quic_sstream_get_final_size(ptr noundef readonly captures(none) %0, ptr noundef writeonly captures(address_is_null) %1) local_unnamed_addr #6 {
  %3 = getelementptr inbounds nuw i8, ptr %0, i64 80
  %4 = load i8, ptr %3, align 8
  %5 = and i8 %4, 1
  %.not = icmp eq i8 %5, 0
  br i1 %.not, label %10, label %6

6:                                                ; preds = %2
  %.not5 = icmp eq ptr %1, null
  br i1 %.not5, label %10, label %7

7:                                                ; preds = %6
  %8 = getelementptr inbounds nuw i8, ptr %0, i64 16
  %9 = load i64, ptr %8, align 8, !tbaa !17
  store i64 %9, ptr %1, align 8, !tbaa !12
  br label %10

10:                                               ; preds = %6, %7, %2
  %.0 = phi i32 [ 0, %2 ], [ 1, %7 ], [ 1, %6 ]
  ret i32 %.0
}